target datalayout = "e-m:e-p270:32:32-p271:32:32-p272:64:64-i64:64-i128:128-f80:128-n8:16:32:64-S128"
target triple = "x86_64-pc-linux-gnu"

@proto_register_cdma2k.ett = internal global [6 x ptr] [ptr @ett_cdma2k_msghdr, ptr @ett_cdma2k_subtree, ptr @ett_cdma2k_subtree1, ptr @ett_cdma2k_subtree2, ptr @ett_cdma2k_m_s1, ptr @ett_cdma2000_scm], align 16
@.str.851 = private unnamed_addr constant [7 x i8] c"CDMA2K\00", align 1
@.str.852 = private unnamed_addr constant [7 x i8] c"cdma2k\00", align 1
@proto_cdma2k = internal global i32 0, align 4
@cdma2k_handle = internal global ptr null, align 8

; Function Attrs: null_pointer_is_valid sspstrong uwtable
define hidden void @proto_register_cdma2k() #0 {
  %1 = alloca ptr, align 8
  call void @llvm.lifetime.start.p0(i64 8, ptr %1) #4
  %2 = call i32 @proto_register_protocol(ptr noundef @.str.851, ptr noundef @.str.851, ptr noundef @.str.852)
  store i32 %2, ptr @proto_cdma2k, align 4
  %3 = load i32, ptr @proto_cdma2k, align 4
  %4 = call ptr @register_dissector(ptr noundef @.str.852, ptr noundef @dissect_cdma2k, i32 noundef %3)
  store ptr %4, ptr @cdma2k_handle, align 8
  %5 = load i32, ptr @proto_cdma2k, align 4
  call void @proto_register_field_array(i32 noundef %5, ptr noundef @proto_register_cdma2k.hf, i32 noundef 433)
  call void @proto_register_subtree_array(ptr noundef @proto_register_cdma2k.ett, i32 noundef 6)
  %6 = load i32, ptr @proto_cdma2k, align 4
  %7 = call ptr @expert_register_protocol(i32 noundef %6)
  store ptr %7, ptr %1, align 8
  %8 = load ptr, ptr %1, align 8
  call void @expert_register_field_array(ptr noundef %8, ptr noundef @proto_register_cdma2k.ei, i32 noundef 1)
  call void @llvm.lifetime.end.p0(i64 8, ptr %1) #4
  ret void
}