; Function Attrs: null_pointer_is_valid sspstrong uwtable
define hidden void @proto_register_cdma2k() local_unnamed_addr #0 {
  %1 = tail call i32 @proto_register_protocol(ptr noundef nonnull @.str.851, ptr noundef nonnull @.str.851, ptr noundef nonnull @.str.852)
  store i32 %1, ptr @proto_cdma2k, align 4
  %2 = tail call ptr @register_dissector(ptr noundef nonnull @.str.852, ptr noundef nonnull @dissect_cdma2k, i32 noundef %1)
  store ptr %2, ptr @cdma2k_handle, align 8
  %3 = load i32, ptr @proto_cdma2k, align 4
  tail call void @proto_register_field_array(i32 noundef %3, ptr noundef nonnull @proto_register_cdma2k.hf, i32 noundef 433)
  tail call void @proto_register_subtree_array(ptr noundef nonnull @proto_register_cdma2k.ett, i32 noundef 6)
  %4 = load i32, ptr @proto_cdma2k, align 4
  %5 = tail call ptr @expert_register_protocol(i32 noundef %4)
  tail call void @expert_register_field_array(ptr noundef %5, ptr noundef nonnull @proto_register_cdma2k.ei, i32 noundef 1)
  ret void
}